	.file	"mini.c"
	.text
.Ltext0:
	.type	VALGRIND_PRINTF, @function
VALGRIND_PRINTF:
.LFB0:
	.file 1 "../valgrind/herbgrind/../include/valgrind.h"
	.loc 1 6760 0
	.cfi_startproc
	pushq	%rbp
	.cfi_def_cfa_offset 16
	.cfi_offset 6, -16
	movq	%rsp, %rbp
	.cfi_def_cfa_register 6
	subq	$168, %rsp
	movq	%rdi, -280(%rbp)
	movq	%rsi, -168(%rbp)
	movq	%rdx, -160(%rbp)
	movq	%rcx, -152(%rbp)
	movq	%r8, -144(%rbp)
	movq	%r9, -136(%rbp)
	testb	%al, %al
	je	.L4
	movaps	%xmm0, -128(%rbp)
	movaps	%xmm1, -112(%rbp)
	movaps	%xmm2, -96(%rbp)
	movaps	%xmm3, -80(%rbp)
	movaps	%xmm4, -64(%rbp)
	movaps	%xmm5, -48(%rbp)
	movaps	%xmm6, -32(%rbp)
	movaps	%xmm7, -16(%rbp)
.L4:
	.loc 1 6770 0
	movl	$8, -208(%rbp)
	movl	$48, -204(%rbp)
	leaq	16(%rbp), %rax
	movq	%rax, -200(%rbp)
	leaq	-176(%rbp), %rax
	movq	%rax, -192(%rbp)
.LBB2:
	.loc 1 6778 0
	movq	$5123, -272(%rbp)
	movq	-280(%rbp), %rax
	movq	%rax, -264(%rbp)
	leaq	-208(%rbp), %rax
	movq	%rax, -256(%rbp)
	movq	$0, -248(%rbp)
	movq	$0, -240(%rbp)
	movq	$0, -232(%rbp)
	leaq	-272(%rbp), %rax
	movl	$0, %ecx
	movl	%ecx, %edx
#APP
# 6778 "../valgrind/herbgrind/../include/valgrind.h" 1
	rolq $3,  %rdi ; rolq $13, %rdi
	rolq $61, %rdi ; rolq $51, %rdi
	xchgq %rbx,%rbx
# 0 "" 2
#NO_APP
	movq	%rdx, %rax
	movq	%rax, -216(%rbp)
	movq	-216(%rbp), %rax
.LBE2:
	movq	%rax, -184(%rbp)
	.loc 1 6785 0
	movq	-184(%rbp), %rax
	.loc 1 6787 0
	leave
	.cfi_def_cfa 7, 8
	ret
	.cfi_endproc
.LFE0:
	.size	VALGRIND_PRINTF, .-VALGRIND_PRINTF
	.type	VALGRIND_PRINTF_BACKTRACE, @function
VALGRIND_PRINTF_BACKTRACE:
.LFB1:
	.loc 1 6798 0
	.cfi_startproc
	pushq	%rbp
	.cfi_def_cfa_offset 16
	.cfi_offset 6, -16
	movq	%rsp, %rbp
	.cfi_def_cfa_register 6
	subq	$168, %rsp
	movq	%rdi, -280(%rbp)
	movq	%rsi, -168(%rbp)
	movq	%rdx, -160(%rbp)
	movq	%rcx, -152(%rbp)
	movq	%r8, -144(%rbp)
	movq	%r9, -136(%rbp)
	testb	%al, %al
	je	.L8
	movaps	%xmm0, -128(%rbp)
	movaps	%xmm1, -112(%rbp)
	movaps	%xmm2, -96(%rbp)
	movaps	%xmm3, -80(%rbp)
	movaps	%xmm4, -64(%rbp)
	movaps	%xmm5, -48(%rbp)
	movaps	%xmm6, -32(%rbp)
	movaps	%xmm7, -16(%rbp)
.L8:
	.loc 1 6808 0
	movl	$8, -208(%rbp)
	movl	$48, -204(%rbp)
	leaq	16(%rbp), %rax
	movq	%rax, -200(%rbp)
	leaq	-176(%rbp), %rax
	movq	%rax, -192(%rbp)
.LBB3:
	.loc 1 6816 0
	movq	$5124, -272(%rbp)
	movq	-280(%rbp), %rax
	movq	%rax, -264(%rbp)
	leaq	-208(%rbp), %rax
	movq	%rax, -256(%rbp)
	movq	$0, -248(%rbp)
	movq	$0, -240(%rbp)
	movq	$0, -232(%rbp)
	leaq	-272(%rbp), %rax
	movl	$0, %ecx
	movl	%ecx, %edx
#APP
# 6816 "../valgrind/herbgrind/../include/valgrind.h" 1
	rolq $3,  %rdi ; rolq $13, %rdi
	rolq $61, %rdi ; rolq $51, %rdi
	xchgq %rbx,%rbx
# 0 "" 2
#NO_APP
	movq	%rdx, %rax
	movq	%rax, -216(%rbp)
	movq	-216(%rbp), %rax
.LBE3:
	movq	%rax, -184(%rbp)
	.loc 1 6823 0
	movq	-184(%rbp), %rax
	.loc 1 6825 0
	leave
	.cfi_def_cfa 7, 8
	ret
	.cfi_endproc
.LFE1:
	.size	VALGRIND_PRINTF_BACKTRACE, .-VALGRIND_PRINTF_BACKTRACE
	.section	.rodata
.LC2:
	.string	"%e\n"
	.text
	.globl	main
	.type	main, @function
main:
.LFB2:
	.file 2 "mini.c"
	.loc 2 5 0
	.cfi_startproc
	pushq	%rbp
	.cfi_def_cfa_offset 16
	.cfi_offset 6, -16
	movq	%rsp, %rbp
	.cfi_def_cfa_register 6
	subq	$176, %rsp
	movl	%edi, -148(%rbp)
	movq	%rsi, -160(%rbp)
.LBB4:
.LBB5:
	.loc 2 7 0
	movq	$0, -144(%rbp)
	movq	$0, -136(%rbp)
	movq	$0, -128(%rbp)
	movq	$0, -120(%rbp)
	movq	$0, -112(%rbp)
	movq	$0, -104(%rbp)
	leaq	-144(%rbp), %rax
	movl	$0, %ecx
	movl	%ecx, %edx
#APP
# 7 "mini.c" 1
	rolq $3,  %rdi ; rolq $13, %rdi
	rolq $61, %rdi ; rolq $51, %rdi
	xchgq %rbx,%rbx
# 0 "" 2
#NO_APP
.LBE5:
.LBE4:
	.loc 2 8 0
	movsd	.LC0(%rip), %xmm1
	.loc 2 9 0
	movsd	.LC1(%rip), %xmm0
	addsd	%xmm1, %xmm0
	sqrtsd	%xmm0, %xmm0
	movq	%xmm0, -24(%rbp)
.LBB6:
.LBB7:
	.loc 2 10 0
	movq	$1, -96(%rbp)
	movq	$0, -88(%rbp)
	movq	$0, -80(%rbp)
	movq	$0, -72(%rbp)
	movq	$0, -64(%rbp)
	movq	$0, -56(%rbp)
	leaq	-96(%rbp), %rax
	movl	$0, %esi
	movl	%esi, %edx
#APP
# 10 "mini.c" 1
	rolq $3,  %rdi ; rolq $13, %rdi
	rolq $61, %rdi ; rolq $51, %rdi
	xchgq %rbx,%rbx
# 0 "" 2
#NO_APP
	movq	%rdx, %rax
	movq	%rax, -48(%rbp)
	movq	-48(%rbp), %rax
.LBE7:
	movq	%rax, -32(%rbp)
.LBE6:
	.loc 2 11 0
	movq	-24(%rbp), %rax
	movq	%rax, -168(%rbp)
	movsd	-168(%rbp), %xmm0
	movl	$.LC2, %edi
	movl	$1, %eax
	call	printf
	.loc 2 12 0
	movl	$0, %eax
	.loc 2 13 0
	leave
	.cfi_def_cfa 7, 8
	ret
	.cfi_endproc
.LFE2:
	.size	main, .-main
	.section	.rodata
	.align 8
.LC0:
	.long	0
	.long	1074266112
	.align 8
.LC1:
	.long	0
	.long	1072693248
	.text
.Letext0:
	.file 3 "<built-in>"
	.file 4 "/usr/lib/gcc/x86_64-unknown-linux-gnu/5.2.0/include/stdarg.h"
	.file 5 "../valgrind/herbgrind/herbgrind.h"
	.section	.note.GNU-stack,"",@progbits
